target datalayout = "e-m:e-p270:32:32-p271:32:32-p272:64:64-i64:64-i128:128-f80:128-n8:16:32:64-S128"
target triple = "x86_64-pc-linux-gnu"

%struct.BenchmarkTimeStamps = type { i64, i64, i64 }
%struct.__va_list_tag = type { i32, i32, ptr, ptr }
%struct.rusage = type { %struct.timeval, %struct.timeval, %union.anon.4, %union.anon.5, %union.anon.6, %union.anon.7, %union.anon.8, %union.anon.9, %union.anon.10, %union.anon.11, %union.anon.12, %union.anon.13, %union.anon.14, %union.anon.15, %union.anon.16, %union.anon.17 }
%struct.timeval = type { i64, i64 }
%union.anon.4 = type { i64 }
%union.anon.5 = type { i64 }
%union.anon.6 = type { i64 }
%union.anon.7 = type { i64 }
%union.anon.8 = type { i64 }
%union.anon.9 = type { i64 }
%union.anon.10 = type { i64 }
%union.anon.11 = type { i64 }
%union.anon.12 = type { i64 }
%union.anon.13 = type { i64 }
%union.anon.14 = type { i64 }
%union.anon.15 = type { i64 }
%union.anon.16 = type { i64 }
%union.anon.17 = type { i64 }

@do_benchmark_all = external global i32, align 4
@.str.6 = private unnamed_addr constant [41 x i8] c"bench: %8lu user %8lu sys %8lu real %s \0A\00", align 1
@current_time = internal global %struct.BenchmarkTimeStamps zeroinitializer, align 8

; Function Attrs: nounwind uwtable
define internal void @get_benchmark_time_stamps(ptr dead_on_unwind noalias writable sret(%struct.BenchmarkTimeStamps) align 8 %0) #0 {
  %2 = alloca %struct.rusage, align 8
  %3 = getelementptr inbounds nuw %struct.BenchmarkTimeStamps, ptr %0, i32 0, i32 0
  %4 = call i64 @av_gettime_relative()
  store i64 %4, ptr %3, align 8, !tbaa !118
  %5 = getelementptr inbounds nuw %struct.BenchmarkTimeStamps, ptr %0, i32 0, i32 1
  store i64 0, ptr %5, align 8, !tbaa !115
  %6 = getelementptr inbounds nuw %struct.BenchmarkTimeStamps, ptr %0, i32 0, i32 2
  store i64 0, ptr %6, align 8, !tbaa !117
  call void @llvm.lifetime.start.p0(i64 144, ptr %2) #12
  %7 = call i32 @getrusage(i32 noundef 0, ptr noundef %2) #12
  %8 = getelementptr inbounds nuw %struct.rusage, ptr %2, i32 0, i32 0
  %9 = getelementptr inbounds nuw %struct.timeval, ptr %8, i32 0, i32 0
  %10 = load i64, ptr %9, align 8, !tbaa !120
  %11 = mul nsw i64 %10, 1000000
  %12 = getelementptr inbounds nuw %struct.rusage, ptr %2, i32 0, i32 0
  %13 = getelementptr inbounds nuw %struct.timeval, ptr %12, i32 0, i32 1
  %14 = load i64, ptr %13, align 8, !tbaa !123
  %15 = add nsw i64 %11, %14
  %16 = getelementptr inbounds nuw %struct.BenchmarkTimeStamps, ptr %0, i32 0, i32 1
  store i64 %15, ptr %16, align 8, !tbaa !115
  %17 = getelementptr inbounds nuw %struct.rusage, ptr %2, i32 0, i32 1
  %18 = getelementptr inbounds nuw %struct.timeval, ptr %17, i32 0, i32 0
  %19 = load i64, ptr %18, align 8, !tbaa !124
  %20 = mul nsw i64 %19, 1000000
  %21 = getelementptr inbounds nuw %struct.rusage, ptr %2, i32 0, i32 1
  %22 = getelementptr inbounds nuw %struct.timeval, ptr %21, i32 0, i32 1
  %23 = load i64, ptr %22, align 8, !tbaa !125
  %24 = add nsw i64 %20, %23
  %25 = getelementptr inbounds nuw %struct.BenchmarkTimeStamps, ptr %0, i32 0, i32 2
  store i64 %24, ptr %25, align 8, !tbaa !117
  call void @llvm.lifetime.end.p0(i64 144, ptr %2) #12
  ret void
}

; Function Attrs: nounwind uwtable
define void @update_benchmark(ptr noundef %0, ...) #0 {
  %2 = alloca ptr, align 8
  %3 = alloca %struct.BenchmarkTimeStamps, align 8
  %4 = alloca [1 x %struct.__va_list_tag], align 16
  %5 = alloca [1024 x i8], align 16
  store ptr %0, ptr %2, align 8, !tbaa !108
  %6 = load i32, ptr @do_benchmark_all, align 4, !tbaa !4
  %7 = icmp ne i32 %6, 0
  br i1 %7, label %8, label %32

8:                                                ; preds = %1
  call void @llvm.lifetime.start.p0(i64 24, ptr %3) #12
  call void @get_benchmark_time_stamps(ptr dead_on_unwind writable sret(%struct.BenchmarkTimeStamps) align 8 %3)
  call void @llvm.lifetime.start.p0(i64 24, ptr %4) #12
  call void @llvm.lifetime.start.p0(i64 1024, ptr %5) #12
  %9 = load ptr, ptr %2, align 8, !tbaa !108
  %10 = icmp ne ptr %9, null
  br i1 %10, label %11, label %31

11:                                               ; preds = %8
  %12 = getelementptr inbounds [1 x %struct.__va_list_tag], ptr %4, i64 0, i64 0
  call void @llvm.va_start.p0(ptr %12)
  %13 = getelementptr inbounds [1024 x i8], ptr %5, i64 0, i64 0
  %14 = load ptr, ptr %2, align 8, !tbaa !108
  %15 = getelementptr inbounds [1 x %struct.__va_list_tag], ptr %4, i64 0, i64 0
  %16 = call i32 @vsnprintf(ptr noundef %13, i64 noundef 1024, ptr noundef %14, ptr noundef %15) #12
  %17 = getelementptr inbounds [1 x %struct.__va_list_tag], ptr %4, i64 0, i64 0
  call void @llvm.va_end.p0(ptr %17)
  %18 = getelementptr inbounds nuw %struct.BenchmarkTimeStamps, ptr %3, i32 0, i32 1
  %19 = load i64, ptr %18, align 8, !tbaa !115
  %20 = load i64, ptr getelementptr inbounds nuw (%struct.BenchmarkTimeStamps, ptr @current_time, i32 0, i32 1), align 8, !tbaa !115
  %21 = sub nsw i64 %19, %20
  %22 = getelementptr inbounds nuw %struct.BenchmarkTimeStamps, ptr %3, i32 0, i32 2
  %23 = load i64, ptr %22, align 8, !tbaa !117
  %24 = load i64, ptr getelementptr inbounds nuw (%struct.BenchmarkTimeStamps, ptr @current_time, i32 0, i32 2), align 8, !tbaa !117
  %25 = sub nsw i64 %23, %24
  %26 = getelementptr inbounds nuw %struct.BenchmarkTimeStamps, ptr %3, i32 0, i32 0
  %27 = load i64, ptr %26, align 8, !tbaa !118
  %28 = load i64, ptr @current_time, align 8, !tbaa !118
  %29 = sub nsw i64 %27, %28
  %30 = getelementptr inbounds [1024 x i8], ptr %5, i64 0, i64 0
  call void (ptr, i32, ptr, ...) @av_log(ptr noundef null, i32 noundef 32, ptr noundef @.str.6, i64 noundef %21, i64 noundef %25, i64 noundef %29, ptr noundef %30)
  br label %31

31:                                               ; preds = %11, %8
  call void @llvm.memcpy.p0.p0.i64(ptr align 8 @current_time, ptr align 8 %3, i64 24, i1 false), !tbaa.struct !119
  call void @llvm.lifetime.end.p0(i64 1024, ptr %5) #12
  call void @llvm.lifetime.end.p0(i64 24, ptr %4) #12
  call void @llvm.lifetime.end.p0(i64 24, ptr %3) #12
  br label %32

32:                                               ; preds = %31, %1
  ret void
}