; Function Attrs: nounwind uwtable
define void @update_benchmark(ptr noundef readonly captures(address_is_null) %0, ...) local_unnamed_addr #0 {
  %2 = alloca %struct.rusage, align 8
  %3 = alloca [1 x %struct.__va_list_tag], align 16
  %4 = alloca [1024 x i8], align 16
  %5 = load i32, ptr @do_benchmark_all, align 4, !tbaa !12
  %.not = icmp eq i32 %5, 0
  br i1 %.not, label %29, label %6

6:                                                ; preds = %1
  %7 = tail call i64 @av_gettime_relative() #17, !noalias !104
  call void @llvm.lifetime.start.p0(i64 144, ptr nonnull %2) #17, !noalias !104
  %8 = call i32 @getrusage(i32 noundef 0, ptr noundef nonnull %2) #17, !noalias !104
  %9 = load i64, ptr %2, align 8, !tbaa !107, !noalias !104
  %10 = mul nsw i64 %9, 1000000
  %11 = getelementptr inbounds nuw i8, ptr %2, i64 8
  %12 = load i64, ptr %11, align 8, !tbaa !110, !noalias !104
  %13 = add nsw i64 %10, %12
  %14 = getelementptr inbounds nuw i8, ptr %2, i64 16
  %15 = load i64, ptr %14, align 8, !tbaa !111, !noalias !104
  %16 = mul nsw i64 %15, 1000000
  %17 = getelementptr inbounds nuw i8, ptr %2, i64 24
  %18 = load i64, ptr %17, align 8, !tbaa !112, !noalias !104
  %19 = add nsw i64 %16, %18
  call void @llvm.lifetime.end.p0(i64 144, ptr nonnull %2) #17, !noalias !104
  call void @llvm.lifetime.start.p0(i64 24, ptr nonnull %3) #17
  call void @llvm.lifetime.start.p0(i64 1024, ptr nonnull %4) #17
  %.not2 = icmp eq ptr %0, null
  br i1 %.not2, label %28, label %20

20:                                               ; preds = %6
  call void @llvm.va_start.p0(ptr nonnull %3)
  %21 = call i32 @vsnprintf(ptr noundef nonnull %4, i64 noundef 1024, ptr noundef nonnull %0, ptr noundef nonnull %3) #17
  call void @llvm.va_end.p0(ptr nonnull %3)
  %22 = load i64, ptr @current_time.1, align 8, !tbaa !113
  %23 = sub nsw i64 %13, %22
  %24 = load i64, ptr @current_time.2, align 8, !tbaa !115
  %25 = sub nsw i64 %19, %24
  %26 = load i64, ptr @current_time.0, align 8, !tbaa !116
  %27 = sub nsw i64 %7, %26
  call void (ptr, i32, ptr, ...) @av_log(ptr noundef null, i32 noundef 32, ptr noundef nonnull @.str.6, i64 noundef %23, i64 noundef %25, i64 noundef %27, ptr noundef nonnull %4) #17
  br label %28

28:                                               ; preds = %20, %6
  store i64 %7, ptr @current_time.0, align 8, !tbaa !90
  store i64 %13, ptr @current_time.1, align 8, !tbaa !90
  store i64 %19, ptr @current_time.2, align 8, !tbaa !90
  call void @llvm.lifetime.end.p0(i64 1024, ptr nonnull %4) #17
  call void @llvm.lifetime.end.p0(i64 24, ptr nonnull %3) #17
  br label %29

29:                                               ; preds = %28, %1
  ret void
}